target datalayout = "e-m:e-p270:32:32-p271:32:32-p272:64:64-i64:64-i128:128-f80:128-n8:16:32:64-S128"
target triple = "x86_64-pc-linux-gnu"

%struct.malloc_mutex_s = type { %union.anon }
%union.anon = type { %struct.anon }
%struct.anon = type { %struct.mutex_prof_data_t, %struct.atomic_b_t, %union.pthread_mutex_t }
%struct.mutex_prof_data_t = type { %struct.nstime_t, %struct.nstime_t, i64, i64, i32, %struct.atomic_u32_t, i64, ptr, i64 }
%struct.nstime_t = type { i64 }
%struct.atomic_u32_t = type { i32 }
%struct.atomic_b_t = type { i8 }
%union.pthread_mutex_t = type { %struct.__pthread_mutex_s }
%struct.__pthread_mutex_s = type { i32, i32, i32, i32, i32, i16, i16, %struct.__pthread_internal_list }
%struct.__pthread_internal_list = type { ptr, ptr }
%struct.pa_shard_s = type { ptr, %struct.atomic_zu_t, %struct.atomic_b_t, i8, %struct.pac_s, %struct.sec_s, %struct.hpa_shard_s, %struct.edata_cache_s, i32, ptr, ptr, ptr, ptr }
%struct.atomic_zu_t = type { i64 }
%struct.pac_s = type { %struct.pai_s, %struct.ecache_s, %struct.ecache_s, %struct.ecache_s, ptr, ptr, ptr, %struct.exp_grow_s, %struct.malloc_mutex_s, %struct.san_bump_alloc_s, %struct.atomic_zu_t, %struct.decay_s, %struct.decay_s, ptr, ptr, %struct.atomic_zu_t }
%struct.pai_s = type { ptr, ptr, ptr, ptr, ptr, ptr, ptr }
%struct.ecache_s = type { %struct.malloc_mutex_s, %struct.eset_s, %struct.eset_s, i32, i32, i8 }
%struct.eset_s = type { [4 x i64], [200 x %struct.eset_bin_s], [200 x %struct.eset_bin_stats_s], %struct.edata_list_inactive_t, %struct.atomic_zu_t, i32 }
%struct.eset_bin_s = type { %struct.edata_heap_t, %struct.edata_cmp_summary_s }
%struct.edata_heap_t = type { %struct.ph_s }
%struct.ph_s = type { ptr, i64 }
%struct.edata_cmp_summary_s = type { i64, i64 }
%struct.eset_bin_stats_s = type { %struct.atomic_zu_t, %struct.atomic_zu_t }
%struct.edata_list_inactive_t = type { %struct.anon.1 }
%struct.anon.1 = type { ptr }
%struct.exp_grow_s = type { i32, i32 }
%struct.san_bump_alloc_s = type { %struct.malloc_mutex_s, ptr }
%struct.decay_s = type { %struct.malloc_mutex_s, i8, %struct.atomic_zd_t, %struct.nstime_t, %struct.nstime_t, i64, %struct.nstime_t, i64, i64, [200 x i64], i64 }
%struct.atomic_zd_t = type { i64 }
%struct.sec_s = type { %struct.pai_s, ptr, %struct.sec_opts_s, ptr, i32 }
%struct.sec_opts_s = type { i64, i64, i64, i64, i64 }
%struct.hpa_shard_s = type { %struct.pai_s, ptr, %struct.malloc_mutex_s, %struct.malloc_mutex_s, ptr, %struct.edata_cache_fast_s, %struct.psset_s, i64, i32, ptr, %struct.hpa_shard_opts_s, i64, %struct.hpa_shard_nonderived_stats_s, %struct.nstime_t }
%struct.edata_cache_fast_s = type { %struct.edata_list_inactive_t, ptr, i8 }
%struct.psset_s = type { [64 x %struct.hpdata_age_heap_t], [1 x i64], %struct.psset_stats_s, %struct.hpdata_empty_list_t, [128 x %struct.hpdata_purge_list_t], [2 x i64], %struct.hpdata_hugify_list_t }
%struct.hpdata_age_heap_t = type { %struct.ph_s }
%struct.psset_stats_s = type { %struct.psset_bin_stats_s, [2 x %struct.psset_bin_stats_s], [64 x [2 x %struct.psset_bin_stats_s]], [2 x %struct.psset_bin_stats_s], [2 x %struct.psset_bin_stats_s] }
%struct.psset_bin_stats_s = type { i64, i64, i64 }
%struct.hpdata_empty_list_t = type { %struct.anon.2 }
%struct.anon.2 = type { ptr }
%struct.hpdata_purge_list_t = type { %struct.anon.3 }
%struct.anon.3 = type { ptr }
%struct.hpdata_hugify_list_t = type { %struct.anon.4 }
%struct.anon.4 = type { ptr }
%struct.hpa_shard_opts_s = type { i64, i64, i32, i8, i64, i8, i64, i64 }
%struct.hpa_shard_nonderived_stats_s = type { i64, i64, i64, i64, i64 }
%struct.edata_cache_s = type { %struct.edata_avail_t, %struct.atomic_zu_t, %struct.malloc_mutex_s, ptr }
%struct.edata_avail_t = type { %struct.ph_s }
%struct.edata_s = type { i64, ptr, %union.anon.7, ptr, i64, %union.anon.8, %union.anon.11 }
%union.anon.7 = type { i64 }
%union.anon.8 = type { %union.anon.10 }
%union.anon.10 = type { %struct.edata_heap_link_t }
%struct.edata_heap_link_t = type { %struct.phn_link_s }
%struct.phn_link_s = type { ptr, ptr, ptr }
%union.anon.11 = type { %struct.slab_data_s }
%struct.slab_data_s = type { [8 x i64] }
%struct.tsdn_s = type { %struct.tsd_s }
%struct.tsd_s = type { i8, i8, i8, i64, i64, i64, i64, i64, i64, i64, i64, i64, i64, i64, i64, i64, ptr, i64, i64, i64, ptr, ptr, %struct.ticker_geom_s, i8, %struct.tsd_binshards_s, %struct.tsd_link_t, i8, %struct.peak_s, %struct.activity_callback_thunk_s, %struct.tcache_slow_s, %struct.rtree_ctx_s, %struct.atomic_u8_t, i64, i64, i64, i64, %struct.tcache_s, %struct.witness_tsd_s }
%struct.ticker_geom_s = type { i32, i32 }
%struct.tsd_binshards_s = type { [36 x i8] }
%struct.tsd_link_t = type { ptr, ptr }
%struct.peak_s = type { i64, i64 }
%struct.activity_callback_thunk_s = type { ptr, ptr }
%struct.tcache_slow_s = type { %struct.anon.5, %struct.cache_bin_array_descriptor_s, ptr, i32, %struct.nstime_t, i32, i32, i32, [36 x %struct.cache_bin_fill_ctl_s], [36 x i8], [36 x i8], ptr, ptr }
%struct.anon.5 = type { ptr, ptr }
%struct.cache_bin_array_descriptor_s = type { %struct.anon.6, ptr }
%struct.anon.6 = type { ptr, ptr }
%struct.cache_bin_fill_ctl_s = type { i8, i8 }
%struct.rtree_ctx_s = type { [16 x %struct.rtree_ctx_cache_elm_s], [8 x %struct.rtree_ctx_cache_elm_s] }
%struct.rtree_ctx_cache_elm_s = type { i64, ptr }
%struct.atomic_u8_t = type { i8 }
%struct.tcache_s = type { ptr, [73 x %struct.cache_bin_s] }
%struct.cache_bin_s = type { ptr, %struct.cache_bin_stats_s, i16, i16, i16, %struct.cache_bin_info_s }
%struct.cache_bin_stats_s = type { i64 }
%struct.cache_bin_info_s = type { i16 }
%struct.witness_tsd_s = type { %struct.witness_list_t, i8 }
%struct.witness_list_t = type { ptr }

; Function Attrs: alwaysinline nounwind uwtable
define internal i32 @atomic_enum_to_builtin(i32 noundef %0) #3 {
  %2 = alloca i32, align 4
  %3 = alloca i32, align 4
  store i32 %0, ptr %3, align 4, !tbaa !23
  %4 = load i32, ptr %3, align 4, !tbaa !23
  switch i32 %4, label %10 [
    i32 0, label %5
    i32 1, label %6
    i32 2, label %7
    i32 3, label %8
    i32 4, label %9
  ]

5:                                                ; preds = %1
  store i32 0, ptr %2, align 4
  br label %12

6:                                                ; preds = %1
  store i32 2, ptr %2, align 4
  br label %12

7:                                                ; preds = %1
  store i32 3, ptr %2, align 4
  br label %12

8:                                                ; preds = %1
  store i32 4, ptr %2, align 4
  br label %12

9:                                                ; preds = %1
  store i32 5, ptr %2, align 4
  br label %12

10:                                               ; preds = %1
  br label %11

11:                                               ; preds = %10
  unreachable

12:                                               ; preds = %5, %6, %7, %8, %9
  %13 = load i32, ptr %2, align 4
  ret i32 %13
}

; Function Attrs: alwaysinline nounwind uwtable
define internal ptr @tsd_witness_tsdp_get_unsafe(ptr noundef %0) #3 {
  %2 = alloca ptr, align 8
  store ptr %0, ptr %2, align 8, !tbaa !82
  %3 = load ptr, ptr %2, align 8, !tbaa !82
  %4 = getelementptr inbounds nuw %struct.tsd_s, ptr %3, i32 0, i32 37
  ret ptr %4
}

; Function Attrs: alwaysinline nounwind uwtable
define internal zeroext i8 @tsd_state_get(ptr noundef %0) #3 {
  %2 = alloca ptr, align 8
  store ptr %0, ptr %2, align 8, !tbaa !82
  %3 = load ptr, ptr %2, align 8, !tbaa !82
  %4 = getelementptr inbounds nuw %struct.tsd_s, ptr %3, i32 0, i32 31
  %5 = load i8, ptr %4, align 8, !tbaa !91
  ret i8 %5
}

; Function Attrs: alwaysinline nounwind uwtable
define internal i64 @atomic_fetch_add_zu(ptr noundef %0, i64 noundef %1, i32 noundef %2) #3 {
  %4 = alloca ptr, align 8
  %5 = alloca i64, align 8
  %6 = alloca i32, align 4
  %7 = alloca i64, align 8
  %8 = alloca i64, align 8
  store ptr %0, ptr %4, align 8, !tbaa !29
  store i64 %1, ptr %5, align 8, !tbaa !30
  store i32 %2, ptr %6, align 4, !tbaa !23
  %9 = load ptr, ptr %4, align 8, !tbaa !29
  %10 = getelementptr inbounds nuw %struct.atomic_zu_t, ptr %9, i32 0, i32 0
  %11 = load i32, ptr %6, align 4, !tbaa !23
  %12 = call i32 @atomic_enum_to_builtin(i32 noundef %11)
  %13 = load i64, ptr %5, align 8, !tbaa !30
  store i64 %13, ptr %7, align 8, !tbaa !30
  switch i32 %12, label %14 [
    i32 1, label %17
    i32 2, label %17
    i32 3, label %20
    i32 4, label %23
    i32 5, label %26
  ]

14:                                               ; preds = %3
  %15 = load i64, ptr %7, align 8
  %16 = atomicrmw add ptr %10, i64 %15 monotonic, align 8
  store i64 %16, ptr %8, align 8
  br label %29

17:                                               ; preds = %3, %3
  %18 = load i64, ptr %7, align 8
  %19 = atomicrmw add ptr %10, i64 %18 acquire, align 8
  store i64 %19, ptr %8, align 8
  br label %29

20:                                               ; preds = %3
  %21 = load i64, ptr %7, align 8
  %22 = atomicrmw add ptr %10, i64 %21 release, align 8
  store i64 %22, ptr %8, align 8
  br label %29

23:                                               ; preds = %3
  %24 = load i64, ptr %7, align 8
  %25 = atomicrmw add ptr %10, i64 %24 acq_rel, align 8
  store i64 %25, ptr %8, align 8
  br label %29

26:                                               ; preds = %3
  %27 = load i64, ptr %7, align 8
  %28 = atomicrmw add ptr %10, i64 %27 seq_cst, align 8
  store i64 %28, ptr %8, align 8
  br label %29

29:                                               ; preds = %26, %23, %20, %17, %14
  %30 = load i64, ptr %8, align 8, !tbaa !30
  ret i64 %30
}

; Function Attrs: alwaysinline nounwind uwtable
define internal zeroext i1 @atomic_load_b(ptr noundef %0, i32 noundef %1) #3 {
  %3 = alloca ptr, align 8
  %4 = alloca i32, align 4
  %5 = alloca i8, align 1
  store ptr %0, ptr %3, align 8, !tbaa !29
  store i32 %1, ptr %4, align 4, !tbaa !23
  call void @llvm.lifetime.start.p0(i64 1, ptr %5) #6
  %6 = load ptr, ptr %3, align 8, !tbaa !29
  %7 = getelementptr inbounds nuw %struct.atomic_b_t, ptr %6, i32 0, i32 0
  %8 = load i32, ptr %4, align 4, !tbaa !23
  %9 = call i32 @atomic_enum_to_builtin(i32 noundef %8)
  switch i32 %9, label %10 [
    i32 1, label %12
    i32 2, label %12
    i32 5, label %14
  ]

10:                                               ; preds = %2
  %11 = load atomic i8, ptr %7 monotonic, align 1
  store i8 %11, ptr %5, align 1
  br label %16

12:                                               ; preds = %2, %2
  %13 = load atomic i8, ptr %7 acquire, align 1
  store i8 %13, ptr %5, align 1
  br label %16

14:                                               ; preds = %2
  %15 = load atomic i8, ptr %7 seq_cst, align 1
  store i8 %15, ptr %5, align 1
  br label %16

16:                                               ; preds = %14, %12, %10
  %17 = load i8, ptr %5, align 1, !tbaa !11, !range !15, !noundef !16
  %18 = trunc i8 %17 to i1
  call void @llvm.lifetime.end.p0(i64 1, ptr %5) #6
  ret i1 %18
}

; Function Attrs: alwaysinline nounwind uwtable
define internal ptr @tsd_witness_tsdp_get(ptr noundef %0) #3 {
  %2 = alloca ptr, align 8
  %3 = alloca i8, align 1
  store ptr %0, ptr %2, align 8, !tbaa !82
  call void @llvm.lifetime.start.p0(i64 1, ptr %3) #6
  %4 = load ptr, ptr %2, align 8, !tbaa !82
  %5 = call zeroext i8 @tsd_state_get(ptr noundef %4)
  store i8 %5, ptr %3, align 1, !tbaa !91
  br label %6

6:                                                ; preds = %1
  br label %7

7:                                                ; preds = %6
  br label %8

8:                                                ; preds = %7
  %9 = load ptr, ptr %2, align 8, !tbaa !82
  %10 = call ptr @tsd_witness_tsdp_get_unsafe(ptr noundef %9)
  call void @llvm.lifetime.end.p0(i64 1, ptr %3) #6
  ret ptr %10
}

; Function Attrs: alwaysinline nounwind uwtable
define internal ptr @tsdn_tsd(ptr noundef %0) #3 {
  %2 = alloca ptr, align 8
  store ptr %0, ptr %2, align 8, !tbaa !17
  br label %3

3:                                                ; preds = %1
  br label %4

4:                                                ; preds = %3
  %5 = load ptr, ptr %2, align 8, !tbaa !17
  %6 = getelementptr inbounds nuw %struct.tsdn_s, ptr %5, i32 0, i32 0
  ret ptr %6
}

; Function Attrs: alwaysinline nounwind uwtable
define internal zeroext i1 @tsdn_null(ptr noundef %0) #3 {
  %2 = alloca ptr, align 8
  store ptr %0, ptr %2, align 8, !tbaa !17
  %3 = load ptr, ptr %2, align 8, !tbaa !17
  %4 = icmp eq ptr %3, null
  ret i1 %4
}

; Function Attrs: inlinehint nounwind uwtable
define internal void @edata_slab_set(ptr noundef %0, i1 noundef zeroext %1) #5 {
  %3 = alloca ptr, align 8
  %4 = alloca i8, align 1
  store ptr %0, ptr %3, align 8, !tbaa !79
  %5 = zext i1 %1 to i8
  store i8 %5, ptr %4, align 1, !tbaa !11
  %6 = load ptr, ptr %3, align 8, !tbaa !79
  %7 = getelementptr inbounds nuw %struct.edata_s, ptr %6, i32 0, i32 0
  %8 = load i64, ptr %7, align 8, !tbaa !86
  %9 = and i64 %8, -4097
  %10 = load i8, ptr %4, align 1, !tbaa !11, !range !15, !noundef !16
  %11 = trunc i8 %10 to i1
  %12 = zext i1 %11 to i64
  %13 = shl i64 %12, 12
  %14 = or i64 %9, %13
  %15 = load ptr, ptr %3, align 8, !tbaa !79
  %16 = getelementptr inbounds nuw %struct.edata_s, ptr %15, i32 0, i32 0
  store i64 %14, ptr %16, align 8, !tbaa !86
  ret void
}

; Function Attrs: inlinehint nounwind uwtable
define internal void @edata_szind_set(ptr noundef %0, i32 noundef %1) #5 {
  %3 = alloca ptr, align 8
  %4 = alloca i32, align 4
  store ptr %0, ptr %3, align 8, !tbaa !79
  store i32 %1, ptr %4, align 4, !tbaa !23
  br label %5

5:                                                ; preds = %2
  br label %6

6:                                                ; preds = %5
  %7 = load ptr, ptr %3, align 8, !tbaa !79
  %8 = getelementptr inbounds nuw %struct.edata_s, ptr %7, i32 0, i32 0
  %9 = load i64, ptr %8, align 8, !tbaa !86
  %10 = and i64 %9, -267386881
  %11 = load i32, ptr %4, align 4, !tbaa !23
  %12 = zext i32 %11 to i64
  %13 = shl i64 %12, 20
  %14 = or i64 %10, %13
  %15 = load ptr, ptr %3, align 8, !tbaa !79
  %16 = getelementptr inbounds nuw %struct.edata_s, ptr %15, i32 0, i32 0
  store i64 %14, ptr %16, align 8, !tbaa !86
  ret void
}

; Function Attrs: nounwind uwtable
define internal void @pa_nactive_add(ptr noundef %0, i64 noundef %1) #0 {
  %3 = alloca ptr, align 8
  %4 = alloca i64, align 8
  store ptr %0, ptr %3, align 8, !tbaa !19
  store i64 %1, ptr %4, align 8, !tbaa !30
  %5 = load ptr, ptr %3, align 8, !tbaa !19
  %6 = getelementptr inbounds nuw %struct.pa_shard_s, ptr %5, i32 0, i32 1
  %7 = load i64, ptr %4, align 8, !tbaa !30
  %8 = call i64 @atomic_fetch_add_zu(ptr noundef %6, i64 noundef %7, i32 noundef 0)
  ret void
}

; Function Attrs: inlinehint nounwind uwtable
define internal ptr @pai_alloc(ptr noundef %0, ptr noundef %1, i64 noundef %2, i64 noundef %3, i1 noundef zeroext %4, i1 noundef zeroext %5, i1 noundef zeroext %6, ptr noundef %7) #5 {
  %9 = alloca ptr, align 8
  %10 = alloca ptr, align 8
  %11 = alloca i64, align 8
  %12 = alloca i64, align 8
  %13 = alloca i8, align 1
  %14 = alloca i8, align 1
  %15 = alloca i8, align 1
  %16 = alloca ptr, align 8
  store ptr %0, ptr %9, align 8, !tbaa !17
  store ptr %1, ptr %10, align 8, !tbaa !84
  store i64 %2, ptr %11, align 8, !tbaa !30
  store i64 %3, ptr %12, align 8, !tbaa !30
  %17 = zext i1 %4 to i8
  store i8 %17, ptr %13, align 1, !tbaa !11
  %18 = zext i1 %5 to i8
  store i8 %18, ptr %14, align 1, !tbaa !11
  %19 = zext i1 %6 to i8
  store i8 %19, ptr %15, align 1, !tbaa !11
  store ptr %7, ptr %16, align 8, !tbaa !77
  %20 = load ptr, ptr %10, align 8, !tbaa !84
  %21 = getelementptr inbounds nuw %struct.pai_s, ptr %20, i32 0, i32 0
  %22 = load ptr, ptr %21, align 8, !tbaa !85
  %23 = load ptr, ptr %9, align 8, !tbaa !17
  %24 = load ptr, ptr %10, align 8, !tbaa !84
  %25 = load i64, ptr %11, align 8, !tbaa !30
  %26 = load i64, ptr %12, align 8, !tbaa !30
  %27 = load i8, ptr %13, align 1, !tbaa !11, !range !15, !noundef !16
  %28 = trunc i8 %27 to i1
  %29 = load i8, ptr %14, align 1, !tbaa !11, !range !15, !noundef !16
  %30 = trunc i8 %29 to i1
  %31 = load i8, ptr %15, align 1, !tbaa !11, !range !15, !noundef !16
  %32 = trunc i8 %31 to i1
  %33 = load ptr, ptr %16, align 8, !tbaa !77
  %34 = call ptr %22(ptr noundef %23, ptr noundef %24, i64 noundef %25, i64 noundef %26, i1 noundef zeroext %28, i1 noundef zeroext %30, i1 noundef zeroext %32, ptr noundef %33)
  ret ptr %34
}

; Function Attrs: nounwind uwtable
define internal zeroext i1 @pa_shard_uses_hpa(ptr noundef %0) #0 {
  %2 = alloca ptr, align 8
  store ptr %0, ptr %2, align 8, !tbaa !19
  %3 = load ptr, ptr %2, align 8, !tbaa !19
  %4 = getelementptr inbounds nuw %struct.pa_shard_s, ptr %3, i32 0, i32 2
  %5 = call zeroext i1 @atomic_load_b(ptr noundef %4, i32 noundef 0)
  ret i1 %5
}

; Function Attrs: inlinehint nounwind uwtable
define internal void @witness_assert_depth_to_rank(ptr noundef %0, i32 noundef %1, i32 noundef %2) #5 {
  %4 = alloca ptr, align 8
  %5 = alloca i32, align 4
  %6 = alloca i32, align 4
  store ptr %0, ptr %4, align 8, !tbaa !80
  store i32 %1, ptr %5, align 4, !tbaa !23
  store i32 %2, ptr %6, align 4, !tbaa !23
  ret void
}

; Function Attrs: alwaysinline nounwind uwtable
define internal ptr @tsdn_witness_tsdp_get(ptr noundef %0) #3 {
  %2 = alloca ptr, align 8
  %3 = alloca ptr, align 8
  %4 = alloca ptr, align 8
  store ptr %0, ptr %3, align 8, !tbaa !17
  %5 = load ptr, ptr %3, align 8, !tbaa !17
  %6 = call zeroext i1 @tsdn_null(ptr noundef %5)
  br i1 %6, label %7, label %8

7:                                                ; preds = %1
  store ptr null, ptr %2, align 8
  br label %13

8:                                                ; preds = %1
  call void @llvm.lifetime.start.p0(i64 8, ptr %4) #6
  %9 = load ptr, ptr %3, align 8, !tbaa !17
  %10 = call ptr @tsdn_tsd(ptr noundef %9)
  store ptr %10, ptr %4, align 8, !tbaa !82
  %11 = load ptr, ptr %4, align 8, !tbaa !82
  %12 = call ptr @tsd_witness_tsdp_get(ptr noundef %11)
  store ptr %12, ptr %2, align 8
  call void @llvm.lifetime.end.p0(i64 8, ptr %4) #6
  br label %13

13:                                               ; preds = %8, %7
  %14 = load ptr, ptr %2, align 8
  ret ptr %14
}

; Function Attrs: nounwind uwtable
define hidden ptr @je_pa_alloc(ptr noundef %0, ptr noundef %1, i64 noundef %2, i64 noundef %3, i1 noundef zeroext %4, i32 noundef %5, i1 noundef zeroext %6, i1 noundef zeroext %7, ptr noundef %8) #0 {
  %10 = alloca ptr, align 8
  %11 = alloca ptr, align 8
  %12 = alloca i64, align 8
  %13 = alloca i64, align 8
  %14 = alloca i8, align 1
  %15 = alloca i32, align 4
  %16 = alloca i8, align 1
  %17 = alloca i8, align 1
  %18 = alloca ptr, align 8
  %19 = alloca ptr, align 8
  store ptr %0, ptr %10, align 8, !tbaa !17
  store ptr %1, ptr %11, align 8, !tbaa !19
  store i64 %2, ptr %12, align 8, !tbaa !30
  store i64 %3, ptr %13, align 8, !tbaa !30
  %20 = zext i1 %4 to i8
  store i8 %20, ptr %14, align 1, !tbaa !11
  store i32 %5, ptr %15, align 4, !tbaa !23
  %21 = zext i1 %6 to i8
  store i8 %21, ptr %16, align 1, !tbaa !11
  %22 = zext i1 %7 to i8
  store i8 %22, ptr %17, align 1, !tbaa !11
  store ptr %8, ptr %18, align 8, !tbaa !77
  %23 = load ptr, ptr %10, align 8, !tbaa !17
  %24 = call ptr @tsdn_witness_tsdp_get(ptr noundef %23)
  call void @witness_assert_depth_to_rank(ptr noundef %24, i32 noundef 14, i32 noundef 0)
  br label %25

25:                                               ; preds = %9
  br label %26

26:                                               ; preds = %25
  call void @llvm.lifetime.start.p0(i64 8, ptr %19) #6
  store ptr null, ptr %19, align 8, !tbaa !79
  %27 = load i8, ptr %17, align 1, !tbaa !11, !range !15, !noundef !16
  %28 = trunc i8 %27 to i1
  br i1 %28, label %45, label %29

29:                                               ; preds = %26
  %30 = load ptr, ptr %11, align 8, !tbaa !19
  %31 = call zeroext i1 @pa_shard_uses_hpa(ptr noundef %30)
  br i1 %31, label %32, label %45

32:                                               ; preds = %29
  %33 = load ptr, ptr %10, align 8, !tbaa !17
  %34 = load ptr, ptr %11, align 8, !tbaa !19
  %35 = getelementptr inbounds nuw %struct.pa_shard_s, ptr %34, i32 0, i32 5
  %36 = getelementptr inbounds nuw %struct.sec_s, ptr %35, i32 0, i32 0
  %37 = load i64, ptr %12, align 8, !tbaa !30
  %38 = load i64, ptr %13, align 8, !tbaa !30
  %39 = load i8, ptr %16, align 1, !tbaa !11, !range !15, !noundef !16
  %40 = trunc i8 %39 to i1
  %41 = load i8, ptr %14, align 1, !tbaa !11, !range !15, !noundef !16
  %42 = trunc i8 %41 to i1
  %43 = load ptr, ptr %18, align 8, !tbaa !77
  %44 = call ptr @pai_alloc(ptr noundef %33, ptr noundef %36, i64 noundef %37, i64 noundef %38, i1 noundef zeroext %40, i1 noundef zeroext false, i1 noundef zeroext %42, ptr noundef %43)
  store ptr %44, ptr %19, align 8, !tbaa !79
  br label %45

45:                                               ; preds = %32, %29, %26
  %46 = load ptr, ptr %19, align 8, !tbaa !79
  %47 = icmp eq ptr %46, null
  br i1 %47, label %48, label %63

48:                                               ; preds = %45
  %49 = load ptr, ptr %10, align 8, !tbaa !17
  %50 = load ptr, ptr %11, align 8, !tbaa !19
  %51 = getelementptr inbounds nuw %struct.pa_shard_s, ptr %50, i32 0, i32 4
  %52 = getelementptr inbounds nuw %struct.pac_s, ptr %51, i32 0, i32 0
  %53 = load i64, ptr %12, align 8, !tbaa !30
  %54 = load i64, ptr %13, align 8, !tbaa !30
  %55 = load i8, ptr %16, align 1, !tbaa !11, !range !15, !noundef !16
  %56 = trunc i8 %55 to i1
  %57 = load i8, ptr %17, align 1, !tbaa !11, !range !15, !noundef !16
  %58 = trunc i8 %57 to i1
  %59 = load i8, ptr %14, align 1, !tbaa !11, !range !15, !noundef !16
  %60 = trunc i8 %59 to i1
  %61 = load ptr, ptr %18, align 8, !tbaa !77
  %62 = call ptr @pai_alloc(ptr noundef %49, ptr noundef %52, i64 noundef %53, i64 noundef %54, i1 noundef zeroext %56, i1 noundef zeroext %58, i1 noundef zeroext %60, ptr noundef %61)
  store ptr %62, ptr %19, align 8, !tbaa !79
  br label %63

63:                                               ; preds = %48, %45
  %64 = load ptr, ptr %19, align 8, !tbaa !79
  %65 = icmp ne ptr %64, null
  br i1 %65, label %66, label %102

66:                                               ; preds = %63
  br label %67

67:                                               ; preds = %66
  br label %68

68:                                               ; preds = %67
  br label %69

69:                                               ; preds = %68
  %70 = load ptr, ptr %11, align 8, !tbaa !19
  %71 = load i64, ptr %12, align 8, !tbaa !30
  %72 = lshr i64 %71, 12
  call void @pa_nactive_add(ptr noundef %70, i64 noundef %72)
  %73 = load ptr, ptr %10, align 8, !tbaa !17
  %74 = load ptr, ptr %11, align 8, !tbaa !19
  %75 = getelementptr inbounds nuw %struct.pa_shard_s, ptr %74, i32 0, i32 11
  %76 = load ptr, ptr %75, align 8, !tbaa !71
  %77 = load ptr, ptr %19, align 8, !tbaa !79
  %78 = load i32, ptr %15, align 4, !tbaa !23
  %79 = load i8, ptr %14, align 1, !tbaa !11, !range !15, !noundef !16
  %80 = trunc i8 %79 to i1
  call void @je_emap_remap(ptr noundef %73, ptr noundef %76, ptr noundef %77, i32 noundef %78, i1 noundef zeroext %80)
  %81 = load ptr, ptr %19, align 8, !tbaa !79
  %82 = load i32, ptr %15, align 4, !tbaa !23
  call void @edata_szind_set(ptr noundef %81, i32 noundef %82)
  %83 = load ptr, ptr %19, align 8, !tbaa !79
  %84 = load i8, ptr %14, align 1, !tbaa !11, !range !15, !noundef !16
  %85 = trunc i8 %84 to i1
  call void @edata_slab_set(ptr noundef %83, i1 noundef zeroext %85)
  %86 = load i8, ptr %14, align 1, !tbaa !11, !range !15, !noundef !16
  %87 = trunc i8 %86 to i1
  br i1 %87, label %88, label %98

88:                                               ; preds = %69
  %89 = load i64, ptr %12, align 8, !tbaa !30
  %90 = icmp ugt i64 %89, 8192
  br i1 %90, label %91, label %98

91:                                               ; preds = %88
  %92 = load ptr, ptr %10, align 8, !tbaa !17
  %93 = load ptr, ptr %11, align 8, !tbaa !19
  %94 = getelementptr inbounds nuw %struct.pa_shard_s, ptr %93, i32 0, i32 11
  %95 = load ptr, ptr %94, align 8, !tbaa !71
  %96 = load ptr, ptr %19, align 8, !tbaa !79
  %97 = load i32, ptr %15, align 4, !tbaa !23
  call void @je_emap_register_interior(ptr noundef %92, ptr noundef %95, ptr noundef %96, i32 noundef %97)
  br label %98

98:                                               ; preds = %91, %88, %69
  br label %99

99:                                               ; preds = %98
  br label %100

100:                                              ; preds = %99
  br label %101

101:                                              ; preds = %100
  br label %102

102:                                              ; preds = %101, %63
  %103 = load ptr, ptr %19, align 8, !tbaa !79
  call void @llvm.lifetime.end.p0(i64 8, ptr %19) #6
  ret ptr %103
}